target datalayout = "e-m:e-p270:32:32-p271:32:32-p272:64:64-i64:64-i128:128-f80:128-n8:16:32:64-S128"
target triple = "x86_64-pc-linux-gnu"

%struct.quic_conn_st = type { %struct.quic_obj_st, ptr, ptr, ptr, ptr, ptr, ptr, ptr, ptr, %union.bio_addr_st, %struct.quic_thread_assist_st, i64, i16, i32, i32, i64, i32, i64, i32 }
%struct.quic_obj_st = type { %struct.ssl_st, ptr, ptr, ptr, ptr, ptr, i64, i8 }
%struct.ssl_st = type { i32, ptr, ptr, ptr, %struct.CRYPTO_REF_COUNT, ptr, %struct.crypto_ex_data_st }
%struct.CRYPTO_REF_COUNT = type { i32 }
%struct.crypto_ex_data_st = type { ptr, ptr }
%union.bio_addr_st = type { %struct.sockaddr_in6, [84 x i8] }
%struct.sockaddr_in6 = type { i16, i16, i32, %struct.in6_addr, i32 }
%struct.in6_addr = type { %union.anon }
%union.anon = type { [4 x i32] }
%struct.quic_thread_assist_st = type { ptr, ptr, ptr, i32, i32 }
%struct.qctx_st = type { ptr, ptr, ptr, ptr, ptr, i32, i32, i32, i32 }

@.str = private unnamed_addr constant [32 x i8] c"../openssl/ssl/quic/quic_impl.c\00", align 1
@__func__.ossl_quic_set_default_stream_mode = private unnamed_addr constant [34 x i8] c"ossl_quic_set_default_stream_mode\00", align 1
@.str.1 = private unnamed_addr constant [39 x i8] c"too late to change default stream mode\00", align 1
@.str.2 = private unnamed_addr constant [24 x i8] c"bad default stream type\00", align 1

; Function Attrs: inlinehint nounwind uwtable
define internal ptr @ossl_quic_obj_get0_engine(ptr noundef %0) #3 {
  %2 = alloca ptr, align 8
  store ptr %0, ptr %2, align 8, !tbaa !172
  %3 = load ptr, ptr %2, align 8, !tbaa !172
  %4 = getelementptr inbounds nuw %struct.quic_obj_st, ptr %3, i32 0, i32 4
  %5 = load ptr, ptr %4, align 8, !tbaa !168
  ret ptr %5
}

; Function Attrs: inlinehint nounwind uwtable
define internal ptr @ossl_quic_obj_get0_mutex(ptr noundef %0) #3 {
  %2 = alloca ptr, align 8
  store ptr %0, ptr %2, align 8, !tbaa !172
  %3 = load ptr, ptr %2, align 8, !tbaa !172
  %4 = call ptr @ossl_quic_obj_get0_engine(ptr noundef %3)
  %5 = call ptr @ossl_quic_engine_get0_mutex(ptr noundef %4)
  ret ptr %5
}

; Function Attrs: nounwind uwtable
define internal void @qctx_unlock(ptr noundef %0) #0 {
  %2 = alloca ptr, align 8
  store ptr %0, ptr %2, align 8, !tbaa !119
  %3 = load ptr, ptr %2, align 8, !tbaa !119
  %4 = getelementptr inbounds nuw %struct.qctx_st, ptr %3, i32 0, i32 0
  %5 = load ptr, ptr %4, align 8, !tbaa !166
  %6 = call ptr @ossl_quic_obj_get0_mutex(ptr noundef %5)
  call void @ossl_crypto_mutex_unlock(ptr noundef %6)
  ret void
}

; Function Attrs: nounwind uwtable
define internal void @qctx_lock(ptr noundef %0) #0 {
  %2 = alloca ptr, align 8
  store ptr %0, ptr %2, align 8, !tbaa !119
  %3 = load ptr, ptr %2, align 8, !tbaa !119
  %4 = getelementptr inbounds nuw %struct.qctx_st, ptr %3, i32 0, i32 0
  %5 = load ptr, ptr %4, align 8, !tbaa !166
  %6 = call ptr @ossl_quic_obj_get0_mutex(ptr noundef %5)
  call void @ossl_crypto_mutex_lock(ptr noundef %6)
  ret void
}

; Function Attrs: nounwind uwtable
define internal i32 @expect_quic_conn_only(ptr noundef %0, ptr noundef %1) #0 {
  %3 = alloca ptr, align 8
  %4 = alloca ptr, align 8
  store ptr %0, ptr %3, align 8, !tbaa !136
  store ptr %1, ptr %4, align 8, !tbaa !119
  %5 = load ptr, ptr %3, align 8, !tbaa !136
  %6 = load ptr, ptr %4, align 8, !tbaa !119
  %7 = call i32 @expect_quic_as(ptr noundef %5, ptr noundef %6, i32 noundef 1)
  ret i32 %7
}

; Function Attrs: nounwind uwtable
define i32 @ossl_quic_set_default_stream_mode(ptr noundef %0, i32 noundef %1) #0 {
  %3 = alloca i32, align 4
  %4 = alloca ptr, align 8
  %5 = alloca i32, align 4
  %6 = alloca %struct.qctx_st, align 8
  %7 = alloca i32, align 4
  store ptr %0, ptr %4, align 8, !tbaa !136
  store i32 %1, ptr %5, align 4, !tbaa !122
  call void @llvm.lifetime.start.p0(i64 56, ptr %6) #10
  %8 = load ptr, ptr %4, align 8, !tbaa !136
  %9 = call i32 @expect_quic_conn_only(ptr noundef %8, ptr noundef %6)
  %10 = icmp ne i32 %9, 0
  br i1 %10, label %12, label %11

11:                                               ; preds = %2
  store i32 0, ptr %3, align 4
  store i32 1, ptr %7, align 4
  br label %33

12:                                               ; preds = %2
  call void @qctx_lock(ptr noundef %6)
  %13 = getelementptr inbounds nuw %struct.qctx_st, ptr %6, i32 0, i32 3
  %14 = load ptr, ptr %13, align 8, !tbaa !123
  %15 = getelementptr inbounds nuw %struct.quic_conn_st, ptr %14, i32 0, i32 12
  %16 = load i16, ptr %15, align 8
  %17 = lshr i16 %16, 4
  %18 = and i16 %17, 1
  %19 = zext i16 %18 to i32
  %20 = icmp ne i32 %19, 0
  br i1 %20, label %21, label %23

21:                                               ; preds = %12
  call void @qctx_unlock(ptr noundef %6)
  %22 = call i32 (ptr, ptr, i32, ptr, i32, ptr, ...) @quic_raise_non_normal_error(ptr noundef %6, ptr noundef @.str, i32 noundef 3355, ptr noundef @__func__.ossl_quic_set_default_stream_mode, i32 noundef 786689, ptr noundef @.str.1)
  store i32 %22, ptr %3, align 4
  store i32 1, ptr %7, align 4
  br label %33

23:                                               ; preds = %12
  %24 = load i32, ptr %5, align 4, !tbaa !122
  switch i32 %24, label %30 [
    i32 0, label %25
    i32 1, label %25
    i32 2, label %25
  ]

25:                                               ; preds = %23, %23, %23
  %26 = load i32, ptr %5, align 4, !tbaa !122
  %27 = getelementptr inbounds nuw %struct.qctx_st, ptr %6, i32 0, i32 3
  %28 = load ptr, ptr %27, align 8, !tbaa !123
  %29 = getelementptr inbounds nuw %struct.quic_conn_st, ptr %28, i32 0, i32 13
  store i32 %26, ptr %29, align 4, !tbaa !111
  br label %32

30:                                               ; preds = %23
  call void @qctx_unlock(ptr noundef %6)
  %31 = call i32 (ptr, ptr, i32, ptr, i32, ptr, ...) @quic_raise_non_normal_error(ptr noundef %6, ptr noundef @.str, i32 noundef 3367, ptr noundef @__func__.ossl_quic_set_default_stream_mode, i32 noundef 524550, ptr noundef @.str.2)
  store i32 %31, ptr %3, align 4
  store i32 1, ptr %7, align 4
  br label %33

32:                                               ; preds = %25
  call void @qctx_unlock(ptr noundef %6)
  store i32 1, ptr %3, align 4
  store i32 1, ptr %7, align 4
  br label %33

33:                                               ; preds = %32, %30, %21, %11
  call void @llvm.lifetime.end.p0(i64 56, ptr %6) #10
  %34 = load i32, ptr %3, align 4
  ret i32 %34
}