; Function Attrs: nounwind uwtable
define range(i32 0, 2) i32 @ossl_quic_set_default_stream_mode(ptr noundef %0, i32 noundef %1) local_unnamed_addr #0 {
  %3 = alloca %struct.qctx_st, align 8
  call void @llvm.lifetime.start.p0(i64 56, ptr nonnull %3) #12
  %4 = call fastcc range(i32 0, 2) i32 @expect_quic_as(ptr noundef %0, ptr noundef nonnull %3, i32 noundef 1)
  %.not = icmp eq i32 %4, 0
  br i1 %.not, label %24, label %5

5:                                                ; preds = %2
  %.val = load ptr, ptr %3, align 8, !tbaa !157
  %6 = getelementptr i8, ptr %.val, i64 88
  %.val.val = load ptr, ptr %6, align 8, !tbaa !143
  %7 = call ptr @ossl_quic_engine_get0_mutex(ptr noundef %.val.val) #12
  call void @ossl_crypto_mutex_lock(ptr noundef %7) #12
  %8 = getelementptr inbounds nuw i8, ptr %3, i64 24
  %9 = load ptr, ptr %8, align 8, !tbaa !134
  %10 = getelementptr inbounds nuw i8, ptr %9, i64 336
  %11 = load i16, ptr %10, align 8
  %12 = and i16 %11, 16
  %.not3 = icmp eq i16 %12, 0
  br i1 %.not3, label %16, label %13

13:                                               ; preds = %5
  %.val6 = load ptr, ptr %3, align 8, !tbaa !157
  %14 = getelementptr i8, ptr %.val6, i64 88
  %.val6.val = load ptr, ptr %14, align 8, !tbaa !143
  %15 = call ptr @ossl_quic_engine_get0_mutex(ptr noundef %.val6.val) #12
  call void @ossl_crypto_mutex_unlock(ptr noundef %15) #12
  call void (ptr, ptr, i32, ptr, i32, ptr, ...) @quic_raise_non_normal_error(ptr noundef nonnull %3, ptr nonnull poison, i32 noundef 3355, ptr noundef nonnull @__func__.ossl_quic_set_default_stream_mode, i32 noundef 786689, ptr noundef nonnull @.str.1)
  br label %24

16:                                               ; preds = %5
  %switch = icmp ult i32 %1, 3
  br i1 %switch, label %17, label %21

17:                                               ; preds = %16
  %18 = getelementptr inbounds nuw i8, ptr %9, i64 340
  store i32 %1, ptr %18, align 4, !tbaa !116
  %.val4 = load ptr, ptr %3, align 8, !tbaa !157
  %19 = getelementptr i8, ptr %.val4, i64 88
  %.val4.val = load ptr, ptr %19, align 8, !tbaa !143
  %20 = call ptr @ossl_quic_engine_get0_mutex(ptr noundef %.val4.val) #12
  call void @ossl_crypto_mutex_unlock(ptr noundef %20) #12
  br label %24

21:                                               ; preds = %16
  %.val5 = load ptr, ptr %3, align 8, !tbaa !157
  %22 = getelementptr i8, ptr %.val5, i64 88
  %.val5.val = load ptr, ptr %22, align 8, !tbaa !143
  %23 = call ptr @ossl_quic_engine_get0_mutex(ptr noundef %.val5.val) #12
  call void @ossl_crypto_mutex_unlock(ptr noundef %23) #12
  call void (ptr, ptr, i32, ptr, i32, ptr, ...) @quic_raise_non_normal_error(ptr noundef nonnull %3, ptr nonnull poison, i32 noundef 3367, ptr noundef nonnull @__func__.ossl_quic_set_default_stream_mode, i32 noundef 524550, ptr noundef nonnull @.str.2)
  br label %24

24:                                               ; preds = %2, %17, %21, %13
  %.0 = phi i32 [ 0, %13 ], [ 0, %21 ], [ 1, %17 ], [ 0, %2 ]
  call void @llvm.lifetime.end.p0(i64 56, ptr nonnull %3) #12
  ret i32 %.0
}